; ModuleID = '39/868.c'
source_filename = "39/868.c"
target datalayout = "e-m:e-p270:32:32-p271:32:32-p272:64:64-i64:64-f80:128-n8:16:32:64-S128"
target triple = "x86_64-pc-linux-gnu"

@.str = private unnamed_addr constant [3 x i8] c"%d\00", align 1
@.str.1 = private unnamed_addr constant [13 x i8] c"%s%d%d%s%s%d\00", align 1
@.str.2 = private unnamed_addr constant [2 x i8] c"Y\00", align 1
@.str.3 = private unnamed_addr constant [9 x i8] c"%s\0A%d\0A%d\00", align 1

; Function Attrs: noinline nounwind uwtable
define dso_local i32 @main() #0 {
  %1 = alloca i32, align 4
  %2 = alloca i32, align 4
  %3 = alloca [100 x i32], align 16
  %4 = alloca [100 x i32], align 16
  %5 = alloca [100 x i32], align 16
  %6 = alloca [100 x i32], align 16
  %7 = alloca i32, align 4
  %8 = alloca [100 x [30 x i8]], align 16
  %9 = alloca [100 x [2 x i8]], align 16
  %10 = alloca [100 x [2 x i8]], align 16
  %11 = alloca i32, align 4
  %12 = alloca i32, align 4
  %13 = alloca i32, align 4
  store i32 0, i32* %1, align 4
  %14 = bitcast [100 x i32]* %3 to i8*
  call void @llvm.memset.p0i8.i64(i8* align 16 %14, i8 0, i64 400, i1 false)
  %15 = call i32 (i8*, ...) @__isoc99_scanf(i8* getelementptr inbounds ([3 x i8], [3 x i8]* @.str, i64 0, i64 0), i32* %2)
  store i32 0, i32* %7, align 4
  br label %16

16:                                               ; preds = %129, %0
  %17 = load i32, i32* %7, align 4
  %18 = load i32, i32* %2, align 4
  %19 = icmp slt i32 %17, %18
  br i1 %19, label %20, label %132

20:                                               ; preds = %16
  %21 = load i32, i32* %7, align 4
  %22 = sext i32 %21 to i64
  %23 = getelementptr inbounds [100 x [30 x i8]], [100 x [30 x i8]]* %8, i64 0, i64 %22
  %24 = getelementptr inbounds [30 x i8], [30 x i8]* %23, i64 0, i64 0
  %25 = load i32, i32* %7, align 4
  %26 = sext i32 %25 to i64
  %27 = getelementptr inbounds [100 x i32], [100 x i32]* %4, i64 0, i64 %26
  %28 = load i32, i32* %7, align 4
  %29 = sext i32 %28 to i64
  %30 = getelementptr inbounds [100 x i32], [100 x i32]* %5, i64 0, i64 %29
  %31 = load i32, i32* %7, align 4
  %32 = sext i32 %31 to i64
  %33 = getelementptr inbounds [100 x [2 x i8]], [100 x [2 x i8]]* %9, i64 0, i64 %32
  %34 = getelementptr inbounds [2 x i8], [2 x i8]* %33, i64 0, i64 0
  %35 = load i32, i32* %7, align 4
  %36 = sext i32 %35 to i64
  %37 = getelementptr inbounds [100 x [2 x i8]], [100 x [2 x i8]]* %10, i64 0, i64 %36
  %38 = getelementptr inbounds [2 x i8], [2 x i8]* %37, i64 0, i64 0
  %39 = load i32, i32* %7, align 4
  %40 = sext i32 %39 to i64
  %41 = getelementptr inbounds [100 x i32], [100 x i32]* %6, i64 0, i64 %40
  %42 = call i32 (i8*, ...) @__isoc99_scanf(i8* getelementptr inbounds ([13 x i8], [13 x i8]* @.str.1, i64 0, i64 0), i8* %24, i32* %27, i32* %30, i8* %34, i8* %38, i32* %41)
  %43 = load i32, i32* %7, align 4
  %44 = sext i32 %43 to i64
  %45 = getelementptr inbounds [100 x i32], [100 x i32]* %4, i64 0, i64 %44
  %46 = load i32, i32* %45, align 4
  %47 = icmp sgt i32 %46, 80
  br i1 %47, label %48, label %60

48:                                               ; preds = %20
  %49 = load i32, i32* %7, align 4
  %50 = sext i32 %49 to i64
  %51 = getelementptr inbounds [100 x i32], [100 x i32]* %6, i64 0, i64 %50
  %52 = load i32, i32* %51, align 4
  %53 = icmp sge i32 %52, 1
  br i1 %53, label %54, label %60

54:                                               ; preds = %48
  %55 = load i32, i32* %7, align 4
  %56 = sext i32 %55 to i64
  %57 = getelementptr inbounds [100 x i32], [100 x i32]* %3, i64 0, i64 %56
  %58 = load i32, i32* %57, align 4
  %59 = add nsw i32 %58, 8000
  store i32 %59, i32* %57, align 4
  br label %60

60:                                               ; preds = %54, %48, %20
  %61 = load i32, i32* %7, align 4
  %62 = sext i32 %61 to i64
  %63 = getelementptr inbounds [100 x i32], [100 x i32]* %4, i64 0, i64 %62
  %64 = load i32, i32* %63, align 4
  %65 = icmp sgt i32 %64, 85
  br i1 %65, label %66, label %78

66:                                               ; preds = %60
  %67 = load i32, i32* %7, align 4
  %68 = sext i32 %67 to i64
  %69 = getelementptr inbounds [100 x i32], [100 x i32]* %5, i64 0, i64 %68
  %70 = load i32, i32* %69, align 4
  %71 = icmp sgt i32 %70, 80
  br i1 %71, label %72, label %78

72:                                               ; preds = %66
  %73 = load i32, i32* %7, align 4
  %74 = sext i32 %73 to i64
  %75 = getelementptr inbounds [100 x i32], [100 x i32]* %3, i64 0, i64 %74
  %76 = load i32, i32* %75, align 4
  %77 = add nsw i32 %76, 4000
  store i32 %77, i32* %75, align 4
  br label %78

78:                                               ; preds = %72, %66, %60
  %79 = load i32, i32* %7, align 4
  %80 = sext i32 %79 to i64
  %81 = getelementptr inbounds [100 x i32], [100 x i32]* %4, i64 0, i64 %80
  %82 = load i32, i32* %81, align 4
  %83 = icmp sgt i32 %82, 90
  br i1 %83, label %84, label %90

84:                                               ; preds = %78
  %85 = load i32, i32* %7, align 4
  %86 = sext i32 %85 to i64
  %87 = getelementptr inbounds [100 x i32], [100 x i32]* %3, i64 0, i64 %86
  %88 = load i32, i32* %87, align 4
  %89 = add nsw i32 %88, 2000
  store i32 %89, i32* %87, align 4
  br label %90

90:                                               ; preds = %84, %78
  %91 = load i32, i32* %7, align 4
  %92 = sext i32 %91 to i64
  %93 = getelementptr inbounds [100 x i32], [100 x i32]* %4, i64 0, i64 %92
  %94 = load i32, i32* %93, align 4
  %95 = icmp sgt i32 %94, 85
  br i1 %95, label %96, label %109

96:                                               ; preds = %90
  %97 = load i32, i32* %7, align 4
  %98 = sext i32 %97 to i64
  %99 = getelementptr inbounds [100 x [2 x i8]], [100 x [2 x i8]]* %10, i64 0, i64 %98
  %100 = getelementptr inbounds [2 x i8], [2 x i8]* %99, i64 0, i64 0
  %101 = call i32 @strcmp(i8* %100, i8* getelementptr inbounds ([2 x i8], [2 x i8]* @.str.2, i64 0, i64 0)) #4
  %102 = icmp eq i32 %101, 0
  br i1 %102, label %103, label %109

103:                                              ; preds = %96
  %104 = load i32, i32* %7, align 4
  %105 = sext i32 %104 to i64
  %106 = getelementptr inbounds [100 x i32], [100 x i32]* %3, i64 0, i64 %105
  %107 = load i32, i32* %106, align 4
  %108 = add nsw i32 %107, 1000
  store i32 %108, i32* %106, align 4
  br label %109

109:                                              ; preds = %103, %96, %90
  %110 = load i32, i32* %7, align 4
  %111 = sext i32 %110 to i64
  %112 = getelementptr inbounds [100 x i32], [100 x i32]* %5, i64 0, i64 %111
  %113 = load i32, i32* %112, align 4
  %114 = icmp sgt i32 %113, 80
  br i1 %114, label %115, label %128

115:                                              ; preds = %109
  %116 = load i32, i32* %7, align 4
  %117 = sext i32 %116 to i64
  %118 = getelementptr inbounds [100 x [2 x i8]], [100 x [2 x i8]]* %9, i64 0, i64 %117
  %119 = getelementptr inbounds [2 x i8], [2 x i8]* %118, i64 0, i64 0
  %120 = call i32 @strcmp(i8* %119, i8* getelementptr inbounds ([2 x i8], [2 x i8]* @.str.2, i64 0, i64 0)) #4
  %121 = icmp eq i32 %120, 0
  br i1 %121, label %122, label %128

122:                                              ; preds = %115
  %123 = load i32, i32* %7, align 4
  %124 = sext i32 %123 to i64
  %125 = getelementptr inbounds [100 x i32], [100 x i32]* %3, i64 0, i64 %124
  %126 = load i32, i32* %125, align 4
  %127 = add nsw i32 %126, 850
  store i32 %127, i32* %125, align 4
  br label %128

128:                                              ; preds = %122, %115, %109
  br label %129

129:                                              ; preds = %128
  %130 = load i32, i32* %7, align 4
  %131 = add nsw i32 %130, 1
  store i32 %131, i32* %7, align 4
  br label %16

132:                                              ; preds = %16
  %133 = getelementptr inbounds [100 x i32], [100 x i32]* %3, i64 0, i64 0
  %134 = load i32, i32* %133, align 16
  store i32 %134, i32* %11, align 4
  store i32 0, i32* %12, align 4
  %135 = getelementptr inbounds [100 x i32], [100 x i32]* %3, i64 0, i64 0
  %136 = load i32, i32* %135, align 16
  store i32 %136, i32* %13, align 4
  store i32 1, i32* %7, align 4
  br label %137

137:                                              ; preds = %161, %132
  %138 = load i32, i32* %7, align 4
  %139 = load i32, i32* %2, align 4
  %140 = icmp slt i32 %138, %139
  br i1 %140, label %141, label %164

141:                                              ; preds = %137
  %142 = load i32, i32* %7, align 4
  %143 = sext i32 %142 to i64
  %144 = getelementptr inbounds [100 x i32], [100 x i32]* %3, i64 0, i64 %143
  %145 = load i32, i32* %144, align 4
  %146 = load i32, i32* %13, align 4
  %147 = add nsw i32 %146, %145
  store i32 %147, i32* %13, align 4
  %148 = load i32, i32* %7, align 4
  %149 = sext i32 %148 to i64
  %150 = getelementptr inbounds [100 x i32], [100 x i32]* %3, i64 0, i64 %149
  %151 = load i32, i32* %150, align 4
  %152 = load i32, i32* %11, align 4
  %153 = icmp sgt i32 %151, %152
  br i1 %153, label %154, label %160

154:                                              ; preds = %141
  %155 = load i32, i32* %7, align 4
  %156 = sext i32 %155 to i64
  %157 = getelementptr inbounds [100 x i32], [100 x i32]* %3, i64 0, i64 %156
  %158 = load i32, i32* %157, align 4
  store i32 %158, i32* %11, align 4
  %159 = load i32, i32* %7, align 4
  store i32 %159, i32* %12, align 4
  br label %160

160:                                              ; preds = %154, %141
  br label %161

161:                                              ; preds = %160
  %162 = load i32, i32* %7, align 4
  %163 = add nsw i32 %162, 1
  store i32 %163, i32* %7, align 4
  br label %137

164:                                              ; preds = %137
  %165 = load i32, i32* %12, align 4
  %166 = sext i32 %165 to i64
  %167 = getelementptr inbounds [100 x [30 x i8]], [100 x [30 x i8]]* %8, i64 0, i64 %166
  %168 = getelementptr inbounds [30 x i8], [30 x i8]* %167, i64 0, i64 0
  %169 = load i32, i32* %12, align 4
  %170 = sext i32 %169 to i64
  %171 = getelementptr inbounds [100 x i32], [100 x i32]* %3, i64 0, i64 %170
  %172 = load i32, i32* %171, align 4
  %173 = load i32, i32* %13, align 4
  %174 = call i32 (i8*, ...) @printf(i8* getelementptr inbounds ([9 x i8], [9 x i8]* @.str.3, i64 0, i64 0), i8* %168, i32 %172, i32 %173)
  ret i32 0
}

; Function Attrs: argmemonly nounwind willreturn
declare void @llvm.memset.p0i8.i64(i8* nocapture writeonly, i8, i64, i1 immarg) #1

declare dso_local i32 @__isoc99_scanf(i8*, ...) #2

; Function Attrs: nounwind readonly
declare dso_local i32 @strcmp(i8*, i8*) #3

declare dso_local i32 @printf(i8*, ...) #2


!llvm.module.flags = !{!0}
!llvm.ident = !{!1}

!0 = !{i32 1, !"wchar_size", i32 4}
!1 = !{!"clang version 10.0.0-4ubuntu1 "}
